target datalayout = "e-m:e-p270:32:32-p271:32:32-p272:64:64-i64:64-i128:128-f80:128-n8:16:32:64-S128"
target triple = "x86_64-unknown-linux-gnu"

%"class.llvh::raw_fd_ostream" = type { %"class.llvh::raw_pwrite_stream.base", i32, i8, i8, %"class.std::error_code", i64 }
%"class.llvh::raw_pwrite_stream.base" = type { %"class.llvh::raw_ostream.base" }
%"class.llvh::raw_ostream.base" = type <{ ptr, ptr, ptr, ptr, i32 }>
%"class.std::error_code" = type { i32, ptr }
%"class.llvh::raw_ostream" = type <{ ptr, ptr, ptr, ptr, i32, [4 x i8] }>

; Function Attrs: mustprogress nounwind uwtable
define hidden void @_ZN4llvh11raw_ostream14flush_nonemptyEv(ptr noundef nonnull align 8 dereferenceable(36) %this) #0 align 2 {
entry:
  %this.addr = alloca ptr, align 8
  %Length = alloca i64, align 8
  store ptr %this, ptr %this.addr, align 8
  %this1 = load ptr, ptr %this.addr, align 8
  %OutBufCur = getelementptr inbounds %"class.llvh::raw_ostream", ptr %this1, i32 0, i32 3
  %0 = load ptr, ptr %OutBufCur, align 8
  %OutBufStart = getelementptr inbounds %"class.llvh::raw_ostream", ptr %this1, i32 0, i32 1
  %1 = load ptr, ptr %OutBufStart, align 8
  %sub.ptr.lhs.cast = ptrtoint ptr %0 to i64
  %sub.ptr.rhs.cast = ptrtoint ptr %1 to i64
  %sub.ptr.sub = sub i64 %sub.ptr.lhs.cast, %sub.ptr.rhs.cast
  store i64 %sub.ptr.sub, ptr %Length, align 8
  %OutBufStart2 = getelementptr inbounds %"class.llvh::raw_ostream", ptr %this1, i32 0, i32 1
  %2 = load ptr, ptr %OutBufStart2, align 8
  %OutBufCur3 = getelementptr inbounds %"class.llvh::raw_ostream", ptr %this1, i32 0, i32 3
  store ptr %2, ptr %OutBufCur3, align 8
  %OutBufStart4 = getelementptr inbounds %"class.llvh::raw_ostream", ptr %this1, i32 0, i32 1
  %3 = load ptr, ptr %OutBufStart4, align 8
  %4 = load i64, ptr %Length, align 8
  %vtable = load ptr, ptr %this1, align 8
  %vfn = getelementptr inbounds ptr, ptr %vtable, i64 7
  %5 = load ptr, ptr %vfn, align 8
  call void %5(ptr noundef nonnull align 8 dereferenceable(36) %this1, ptr noundef %3, i64 noundef %4)
  ret void
}

; Function Attrs: mustprogress nounwind uwtable
define linkonce_odr hidden void @_ZN4llvh14raw_fd_ostream14error_detectedESt10error_code(ptr noundef nonnull align 8 dereferenceable(72) %this, i32 %EC.coerce0, ptr %EC.coerce1) #0 comdat align 2 {
entry:
  %EC = alloca %"class.std::error_code", align 8
  %this.addr = alloca ptr, align 8
  %0 = getelementptr inbounds { i32, ptr }, ptr %EC, i32 0, i32 0
  store i32 %EC.coerce0, ptr %0, align 8
  %1 = getelementptr inbounds { i32, ptr }, ptr %EC, i32 0, i32 1
  store ptr %EC.coerce1, ptr %1, align 8
  store ptr %this, ptr %this.addr, align 8
  %this1 = load ptr, ptr %this.addr, align 8
  %EC2 = getelementptr inbounds %"class.llvh::raw_fd_ostream", ptr %this1, i32 0, i32 4
  call void @llvm.memcpy.p0.p0.i64(ptr align 8 %EC2, ptr align 8 %EC, i64 16, i1 false)
  ret void
}

; Function Attrs: mustprogress nounwind uwtable
define linkonce_odr void @_ZNSt10error_codeC2EiRKNSt3_V214error_categoryE(ptr noundef nonnull align 8 dereferenceable(16) %this, i32 noundef %__v, ptr noundef nonnull align 8 dereferenceable(8) %__cat) unnamed_addr #0 comdat align 2 {
entry:
  %this.addr = alloca ptr, align 8
  %__v.addr = alloca i32, align 4
  %__cat.addr = alloca ptr, align 8
  store ptr %this, ptr %this.addr, align 8
  store i32 %__v, ptr %__v.addr, align 4
  store ptr %__cat, ptr %__cat.addr, align 8
  %this1 = load ptr, ptr %this.addr, align 8
  %_M_value = getelementptr inbounds %"class.std::error_code", ptr %this1, i32 0, i32 0
  %0 = load i32, ptr %__v.addr, align 4
  store i32 %0, ptr %_M_value, align 8
  %_M_cat = getelementptr inbounds %"class.std::error_code", ptr %this1, i32 0, i32 1
  %1 = load ptr, ptr %__cat.addr, align 8
  store ptr %1, ptr %_M_cat, align 8
  ret void
}

; Function Attrs: mustprogress nounwind uwtable
define linkonce_odr hidden void @_ZN4llvh11raw_ostream5flushEv(ptr noundef nonnull align 8 dereferenceable(36) %this) #0 comdat align 2 {
entry:
  %this.addr = alloca ptr, align 8
  store ptr %this, ptr %this.addr, align 8
  %this1 = load ptr, ptr %this.addr, align 8
  %OutBufCur = getelementptr inbounds %"class.llvh::raw_ostream", ptr %this1, i32 0, i32 3
  %0 = load ptr, ptr %OutBufCur, align 8
  %OutBufStart = getelementptr inbounds %"class.llvh::raw_ostream", ptr %this1, i32 0, i32 1
  %1 = load ptr, ptr %OutBufStart, align 8
  %cmp = icmp ne ptr %0, %1
  br i1 %cmp, label %if.then, label %if.end

if.then:                                          ; preds = %entry
  call void @_ZN4llvh11raw_ostream14flush_nonemptyEv(ptr noundef nonnull align 8 dereferenceable(36) %this1)
  br label %if.end

if.end:                                           ; preds = %if.then, %entry
  ret void
}

; Function Attrs: mustprogress nounwind uwtable
define linkonce_odr hidden noundef i64 @_ZNK4llvh11raw_ostream19GetNumBytesInBufferEv(ptr noundef nonnull align 8 dereferenceable(36) %this) #0 comdat align 2 {
entry:
  %this.addr = alloca ptr, align 8
  store ptr %this, ptr %this.addr, align 8
  %this1 = load ptr, ptr %this.addr, align 8
  %OutBufCur = getelementptr inbounds %"class.llvh::raw_ostream", ptr %this1, i32 0, i32 3
  %0 = load ptr, ptr %OutBufCur, align 8
  %OutBufStart = getelementptr inbounds %"class.llvh::raw_ostream", ptr %this1, i32 0, i32 1
  %1 = load ptr, ptr %OutBufStart, align 8
  %sub.ptr.lhs.cast = ptrtoint ptr %0 to i64
  %sub.ptr.rhs.cast = ptrtoint ptr %1 to i64
  %sub.ptr.sub = sub i64 %sub.ptr.lhs.cast, %sub.ptr.rhs.cast
  ret i64 %sub.ptr.sub
}

; Function Attrs: mustprogress nounwind uwtable
define hidden noundef i64 @_ZN4llvh14raw_fd_ostream4seekEm(ptr noundef nonnull align 8 dereferenceable(72) %this, i64 noundef %off) #0 align 2 {
entry:
  %this.addr = alloca ptr, align 8
  %off.addr = alloca i64, align 8
  %agg.tmp = alloca %"class.std::error_code", align 8
  store ptr %this, ptr %this.addr, align 8
  store i64 %off, ptr %off.addr, align 8
  %this1 = load ptr, ptr %this.addr, align 8
  call void @_ZN4llvh11raw_ostream5flushEv(ptr noundef nonnull align 8 dereferenceable(36) %this1)
  %FD = getelementptr inbounds %"class.llvh::raw_fd_ostream", ptr %this1, i32 0, i32 1
  %0 = load i32, ptr %FD, align 4
  %1 = load i64, ptr %off.addr, align 8
  %call = call i64 @lseek64(i32 noundef %0, i64 noundef %1, i32 noundef 0) #9
  %pos = getelementptr inbounds %"class.llvh::raw_fd_ostream", ptr %this1, i32 0, i32 5
  store i64 %call, ptr %pos, align 8
  %pos2 = getelementptr inbounds %"class.llvh::raw_fd_ostream", ptr %this1, i32 0, i32 5
  %2 = load i64, ptr %pos2, align 8
  %cmp = icmp eq i64 %2, -1
  br i1 %cmp, label %if.then, label %if.end

if.then:                                          ; preds = %entry
  %call3 = call ptr @__errno_location() #16
  %3 = load i32, ptr %call3, align 4
  %call4 = call noundef nonnull align 8 dereferenceable(8) ptr @_ZNSt3_V216generic_categoryEv() #16
  call void @_ZNSt10error_codeC2EiRKNSt3_V214error_categoryE(ptr noundef nonnull align 8 dereferenceable(16) %agg.tmp, i32 noundef %3, ptr noundef nonnull align 8 dereferenceable(8) %call4) #9
  %4 = getelementptr inbounds { i32, ptr }, ptr %agg.tmp, i32 0, i32 0
  %5 = load i32, ptr %4, align 8
  %6 = getelementptr inbounds { i32, ptr }, ptr %agg.tmp, i32 0, i32 1
  %7 = load ptr, ptr %6, align 8
  call void @_ZN4llvh14raw_fd_ostream14error_detectedESt10error_code(ptr noundef nonnull align 8 dereferenceable(72) %this1, i32 %5, ptr %7)
  br label %if.end

if.end:                                           ; preds = %if.then, %entry
  %pos5 = getelementptr inbounds %"class.llvh::raw_fd_ostream", ptr %this1, i32 0, i32 5
  %8 = load i64, ptr %pos5, align 8
  ret i64 %8
}

; Function Attrs: mustprogress nounwind uwtable
define linkonce_odr hidden noundef i64 @_ZNK4llvh11raw_ostream4tellEv(ptr noundef nonnull align 8 dereferenceable(36) %this) #0 comdat align 2 {
entry:
  %this.addr = alloca ptr, align 8
  store ptr %this, ptr %this.addr, align 8
  %this1 = load ptr, ptr %this.addr, align 8
  %vtable = load ptr, ptr %this1, align 8
  %vfn = getelementptr inbounds ptr, ptr %vtable, i64 8
  %0 = load ptr, ptr %vfn, align 8
  %call = call noundef i64 %0(ptr noundef nonnull align 8 dereferenceable(36) %this1)
  %call2 = call noundef i64 @_ZNK4llvh11raw_ostream19GetNumBytesInBufferEv(ptr noundef nonnull align 8 dereferenceable(36) %this1)
  %add = add i64 %call, %call2
  ret i64 %add
}

; Function Attrs: mustprogress nounwind uwtable
define hidden void @_ZN4llvh14raw_fd_ostream11pwrite_implEPKcmm(ptr noundef nonnull align 8 dereferenceable(72) %this, ptr noundef %Ptr, i64 noundef %Size, i64 noundef %Offset) unnamed_addr #0 align 2 {
entry:
  %this.addr = alloca ptr, align 8
  %Ptr.addr = alloca ptr, align 8
  %Size.addr = alloca i64, align 8
  %Offset.addr = alloca i64, align 8
  %Pos = alloca i64, align 8
  store ptr %this, ptr %this.addr, align 8
  store ptr %Ptr, ptr %Ptr.addr, align 8
  store i64 %Size, ptr %Size.addr, align 8
  store i64 %Offset, ptr %Offset.addr, align 8
  %this1 = load ptr, ptr %this.addr, align 8
  %call = call noundef i64 @_ZNK4llvh11raw_ostream4tellEv(ptr noundef nonnull align 8 dereferenceable(36) %this1)
  store i64 %call, ptr %Pos, align 8
  %0 = load i64, ptr %Offset.addr, align 8
  %call2 = call noundef i64 @_ZN4llvh14raw_fd_ostream4seekEm(ptr noundef nonnull align 8 dereferenceable(72) %this1, i64 noundef %0)
  %1 = load ptr, ptr %Ptr.addr, align 8
  %2 = load i64, ptr %Size.addr, align 8
  %call3 = call noundef nonnull align 8 dereferenceable(36) ptr @_ZN4llvh11raw_ostream5writeEPKcm(ptr noundef nonnull align 8 dereferenceable(36) %this1, ptr noundef %1, i64 noundef %2)
  %3 = load i64, ptr %Pos, align 8
  %call4 = call noundef i64 @_ZN4llvh14raw_fd_ostream4seekEm(ptr noundef nonnull align 8 dereferenceable(72) %this1, i64 noundef %3)
  ret void
}