; Function Attrs: mustprogress nounwind uwtable
define hidden void @_ZN4llvh14raw_fd_ostream11pwrite_implEPKcmm(ptr noundef nonnull align 8 dereferenceable(72) %this, ptr noundef %Ptr, i64 noundef %Size, i64 noundef %Offset) unnamed_addr #0 align 2 {
entry:
  %vtable.i = load ptr, ptr %this, align 8
  %vfn.i = getelementptr inbounds i8, ptr %vtable.i, i64 64
  %0 = load ptr, ptr %vfn.i, align 8
  %call.i = tail call noundef i64 %0(ptr noundef nonnull align 8 dereferenceable(36) %this) #26
  %OutBufCur.i.i = getelementptr inbounds i8, ptr %this, i64 24
  %1 = load ptr, ptr %OutBufCur.i.i, align 8
  %OutBufStart.i.i = getelementptr inbounds i8, ptr %this, i64 8
  %2 = load ptr, ptr %OutBufStart.i.i, align 8
  %sub.ptr.lhs.cast.i.i = ptrtoint ptr %1 to i64
  %sub.ptr.rhs.cast.i.i = ptrtoint ptr %2 to i64
  %sub.ptr.sub.i.i = add i64 %call.i, %sub.ptr.lhs.cast.i.i
  %add.i = sub i64 %sub.ptr.sub.i.i, %sub.ptr.rhs.cast.i.i
  %cmp.not.i.i = icmp eq ptr %1, %2
  br i1 %cmp.not.i.i, label %_ZN4llvh11raw_ostream5flushEv.exit.i, label %if.then.i.i

if.then.i.i:                                      ; preds = %entry
  %sub.ptr.sub.i.i.i = sub i64 %sub.ptr.lhs.cast.i.i, %sub.ptr.rhs.cast.i.i
  store ptr %2, ptr %OutBufCur.i.i, align 8
  %vtable.i.i.i = load ptr, ptr %this, align 8
  %vfn.i.i.i = getelementptr inbounds i8, ptr %vtable.i.i.i, i64 56
  %3 = load ptr, ptr %vfn.i.i.i, align 8
  tail call void %3(ptr noundef nonnull align 8 dereferenceable(36) %this, ptr noundef %2, i64 noundef %sub.ptr.sub.i.i.i) #26
  br label %_ZN4llvh11raw_ostream5flushEv.exit.i

_ZN4llvh11raw_ostream5flushEv.exit.i:             ; preds = %if.then.i.i, %entry
  %FD.i = getelementptr inbounds i8, ptr %this, i64 36
  %4 = load i32, ptr %FD.i, align 4
  %call.i3 = tail call i64 @lseek64(i32 noundef %4, i64 noundef %Offset, i32 noundef 0) #26
  %pos.i = getelementptr inbounds i8, ptr %this, i64 64
  store i64 %call.i3, ptr %pos.i, align 8
  %cmp.i = icmp eq i64 %call.i3, -1
  br i1 %cmp.i, label %if.then.i, label %_ZN4llvh14raw_fd_ostream4seekEm.exit

if.then.i:                                        ; preds = %_ZN4llvh11raw_ostream5flushEv.exit.i
  %call3.i = tail call ptr @__errno_location() #28
  %5 = load i32, ptr %call3.i, align 4
  %call4.i = tail call noundef nonnull align 8 dereferenceable(8) ptr @_ZNSt3_V216generic_categoryEv() #28
  %EC2.i.i = getelementptr inbounds i8, ptr %this, i64 48
  store i32 %5, ptr %EC2.i.i, align 8
  %EC.sroa.21.0.EC2.sroa_idx.i.i = getelementptr inbounds i8, ptr %this, i64 56
  store ptr %call4.i, ptr %EC.sroa.21.0.EC2.sroa_idx.i.i, align 8
  br label %_ZN4llvh14raw_fd_ostream4seekEm.exit

_ZN4llvh14raw_fd_ostream4seekEm.exit:             ; preds = %_ZN4llvh11raw_ostream5flushEv.exit.i, %if.then.i
  %call3 = tail call noundef nonnull align 8 dereferenceable(36) ptr @_ZN4llvh11raw_ostream5writeEPKcm(ptr noundef nonnull align 8 dereferenceable(36) %this, ptr noundef %Ptr, i64 noundef %Size)
  %6 = load ptr, ptr %OutBufCur.i.i, align 8
  %7 = load ptr, ptr %OutBufStart.i.i, align 8
  %cmp.not.i.i6 = icmp eq ptr %6, %7
  br i1 %cmp.not.i.i6, label %_ZN4llvh11raw_ostream5flushEv.exit.i13, label %if.then.i.i7

if.then.i.i7:                                     ; preds = %_ZN4llvh14raw_fd_ostream4seekEm.exit
  %sub.ptr.lhs.cast.i.i.i8 = ptrtoint ptr %6 to i64
  %sub.ptr.rhs.cast.i.i.i9 = ptrtoint ptr %7 to i64
  %sub.ptr.sub.i.i.i10 = sub i64 %sub.ptr.lhs.cast.i.i.i8, %sub.ptr.rhs.cast.i.i.i9
  store ptr %7, ptr %OutBufCur.i.i, align 8
  %vtable.i.i.i11 = load ptr, ptr %this, align 8
  %vfn.i.i.i12 = getelementptr inbounds i8, ptr %vtable.i.i.i11, i64 56
  %8 = load ptr, ptr %vfn.i.i.i12, align 8
  tail call void %8(ptr noundef nonnull align 8 dereferenceable(36) %this, ptr noundef %7, i64 noundef %sub.ptr.sub.i.i.i10) #26
  br label %_ZN4llvh11raw_ostream5flushEv.exit.i13

_ZN4llvh11raw_ostream5flushEv.exit.i13:           ; preds = %if.then.i.i7, %_ZN4llvh14raw_fd_ostream4seekEm.exit
  %9 = load i32, ptr %FD.i, align 4
  %call.i15 = tail call i64 @lseek64(i32 noundef %9, i64 noundef %add.i, i32 noundef 0) #26
  store i64 %call.i15, ptr %pos.i, align 8
  %cmp.i17 = icmp eq i64 %call.i15, -1
  br i1 %cmp.i17, label %if.then.i18, label %_ZN4llvh14raw_fd_ostream4seekEm.exit23

if.then.i18:                                      ; preds = %_ZN4llvh11raw_ostream5flushEv.exit.i13
  %call3.i19 = tail call ptr @__errno_location() #28
  %10 = load i32, ptr %call3.i19, align 4
  %call4.i20 = tail call noundef nonnull align 8 dereferenceable(8) ptr @_ZNSt3_V216generic_categoryEv() #28
  %EC2.i.i21 = getelementptr inbounds i8, ptr %this, i64 48
  store i32 %10, ptr %EC2.i.i21, align 8
  %EC.sroa.21.0.EC2.sroa_idx.i.i22 = getelementptr inbounds i8, ptr %this, i64 56
  store ptr %call4.i20, ptr %EC.sroa.21.0.EC2.sroa_idx.i.i22, align 8
  br label %_ZN4llvh14raw_fd_ostream4seekEm.exit23

_ZN4llvh14raw_fd_ostream4seekEm.exit23:           ; preds = %_ZN4llvh11raw_ostream5flushEv.exit.i13, %if.then.i18
  ret void
}